; Function Attrs: nounwind uwtable
define dso_local i64 @zsetLength(ptr noundef readonly captures(none) %0) local_unnamed_addr #0 {
  %2 = load i32, ptr %0, align 8
  %3 = lshr i32 %2, 4
  %4 = and i32 %3, 15
  switch i32 %4, label %18 [
    i32 11, label %5
    i32 7, label %11
  ]

5:                                                ; preds = %1
  %6 = getelementptr inbounds nuw i8, ptr %0, i64 8
  %7 = load ptr, ptr %6, align 8, !tbaa !75
  %8 = tail call i64 @lpLength(ptr noundef %7) #18
  %9 = lshr i64 %8, 1
  %10 = and i64 %9, 4294967295
  br label %19

11:                                               ; preds = %1
  %12 = getelementptr inbounds nuw i8, ptr %0, i64 8
  %13 = load ptr, ptr %12, align 8, !tbaa !75
  %14 = getelementptr inbounds nuw i8, ptr %13, i64 8
  %15 = load ptr, ptr %14, align 8, !tbaa !97
  %16 = getelementptr inbounds nuw i8, ptr %15, i64 16
  %17 = load i64, ptr %16, align 8, !tbaa !17
  br label %19

18:                                               ; preds = %1
  tail call void (ptr, i32, ptr, ...) @_serverPanic(ptr noundef nonnull @.str.1, i32 noundef 1210, ptr noundef nonnull @.str.9) #18
  tail call void @abort() #19
  unreachable

19:                                               ; preds = %11, %5
  %.0 = phi i64 [ %10, %5 ], [ %17, %11 ]
  ret i64 %.0
}